; Function Attrs: mustprogress nofree norecurse nosync nounwind willreturn memory(argmem: read) uwtable
define range(i32 0, 2) i32 @ossl_quic_port_is_addressed(ptr noundef readonly captures(none) %0) local_unnamed_addr #3 {
  %2 = getelementptr inbounds nuw i8, ptr %0, i64 154
  %3 = load i16, ptr %2, align 2
  %4 = and i16 %3, 128
  %.not = icmp eq i16 %4, 0
  %5 = lshr i16 %3, 6
  %6 = and i16 %5, 1
  %narrow = select i1 %.not, i16 0, i16 %6
  %7 = zext nneg i16 %narrow to i32
  ret i32 %7
}